; Function Attrs: mustprogress uwtable
define noundef zeroext i8 @_ZNK7rocksdb22OnDemandSequentialFile14GetTemperatureEv(ptr noundef nonnull readonly align 8 captures(none) dereferenceable(216) %0) unnamed_addr #0 align 2 {
  %2 = getelementptr inbounds nuw i8, ptr %0, i64 8
  %3 = load ptr, ptr %2, align 8, !tbaa !73
  %4 = load ptr, ptr %3, align 8, !tbaa !60
  %5 = getelementptr inbounds nuw i8, ptr %4, i64 64
  %6 = load ptr, ptr %5, align 8
  %7 = tail call noundef zeroext i8 %6(ptr noundef nonnull align 8 dereferenceable(8) %3)
  ret i8 %7
}